target datalayout = "e-m:e-p270:32:32-p271:32:32-p272:64:64-i64:64-i128:128-f80:128-n8:16:32:64-S128"
target triple = "x86_64-pc-linux-gnu"

; Function Attrs: nounwind null_pointer_is_valid sspstrong uwtable
define internal i32 @k12text_dump_can_write_encap(i32 noundef %0) #2 {
  %2 = alloca i32, align 4
  %3 = alloca i32, align 4
  store i32 %0, ptr %3, align 4
  %4 = load i32, ptr %3, align 4
  switch i32 %4, label %7 [
    i32 -1, label %5
    i32 1, label %5
    i32 43, label %5
    i32 28, label %5
    i32 42, label %6
    i32 13, label %6
  ]

5:                                                ; preds = %1, %1, %1, %1
  store i32 0, ptr %2, align 4
  br label %8

6:                                                ; preds = %1, %1
  br label %7

7:                                                ; preds = %1, %6
  store i32 -8, ptr %2, align 4
  br label %8

8:                                                ; preds = %7, %5
  %9 = load i32, ptr %2, align 4
  ret i32 %9
}